
EEPROM Firmware.elf:     file format elf32-avr

Sections:
Idx Name          Size      VMA       LMA       File off  Algn
  0 .text         00000104  00000000  00000000  00000094  2**1
                  CONTENTS, ALLOC, LOAD, READONLY, CODE
  1 .data         00000008  00800060  00000104  00000198  2**0
                  CONTENTS, ALLOC, LOAD, DATA
  2 .bss          00000002  00800068  00800068  000001a0  2**0
                  ALLOC
  3 .comment      00000030  00000000  00000000  000001a0  2**0
                  CONTENTS, READONLY
  4 .note.gnu.avr.deviceinfo 0000003c  00000000  00000000  000001d0  2**2
                  CONTENTS, READONLY
  5 .debug_aranges 000000c8  00000000  00000000  0000020c  2**0
                  CONTENTS, READONLY, DEBUGGING
  6 .debug_info   00000ab9  00000000  00000000  000002d4  2**0
                  CONTENTS, READONLY, DEBUGGING
  7 .debug_abbrev 000007fe  00000000  00000000  00000d8d  2**0
                  CONTENTS, READONLY, DEBUGGING
  8 .debug_line   0000058f  00000000  00000000  0000158b  2**0
                  CONTENTS, READONLY, DEBUGGING
  9 .debug_frame  0000012c  00000000  00000000  00001b1c  2**2
                  CONTENTS, READONLY, DEBUGGING
 10 .debug_str    00000512  00000000  00000000  00001c48  2**0
                  CONTENTS, READONLY, DEBUGGING
 11 .debug_loc    00000182  00000000  00000000  0000215a  2**0
                  CONTENTS, READONLY, DEBUGGING
 12 .debug_ranges 00000088  00000000  00000000  000022dc  2**0
                  CONTENTS, READONLY, DEBUGGING

Disassembly of section .text:

00000000 <__vectors>:
   0:	0c 94 2a 00 	jmp	0x54	; 0x54 <__ctors_end>
   4:	0c 94 47 00 	jmp	0x8e	; 0x8e <__bad_interrupt>
   8:	0c 94 47 00 	jmp	0x8e	; 0x8e <__bad_interrupt>
   c:	0c 94 47 00 	jmp	0x8e	; 0x8e <__bad_interrupt>
  10:	0c 94 47 00 	jmp	0x8e	; 0x8e <__bad_interrupt>
  14:	0c 94 47 00 	jmp	0x8e	; 0x8e <__bad_interrupt>
  18:	0c 94 47 00 	jmp	0x8e	; 0x8e <__bad_interrupt>
  1c:	0c 94 47 00 	jmp	0x8e	; 0x8e <__bad_interrupt>
  20:	0c 94 47 00 	jmp	0x8e	; 0x8e <__bad_interrupt>
  24:	0c 94 47 00 	jmp	0x8e	; 0x8e <__bad_interrupt>
  28:	0c 94 47 00 	jmp	0x8e	; 0x8e <__bad_interrupt>
  2c:	0c 94 47 00 	jmp	0x8e	; 0x8e <__bad_interrupt>
  30:	0c 94 47 00 	jmp	0x8e	; 0x8e <__bad_interrupt>
  34:	0c 94 47 00 	jmp	0x8e	; 0x8e <__bad_interrupt>
  38:	0c 94 47 00 	jmp	0x8e	; 0x8e <__bad_interrupt>
  3c:	0c 94 47 00 	jmp	0x8e	; 0x8e <__bad_interrupt>
  40:	0c 94 47 00 	jmp	0x8e	; 0x8e <__bad_interrupt>
  44:	0c 94 47 00 	jmp	0x8e	; 0x8e <__bad_interrupt>
  48:	0c 94 47 00 	jmp	0x8e	; 0x8e <__bad_interrupt>
  4c:	0c 94 47 00 	jmp	0x8e	; 0x8e <__bad_interrupt>
  50:	0c 94 47 00 	jmp	0x8e	; 0x8e <__bad_interrupt>

00000054 <__ctors_end>:
  54:	11 24       	eor	r1, r1
  56:	1f be       	out	0x3f, r1	; 63
  58:	cf e5       	ldi	r28, 0x5F	; 95
  5a:	d8 e0       	ldi	r29, 0x08	; 8
  5c:	de bf       	out	0x3e, r29	; 62
  5e:	cd bf       	out	0x3d, r28	; 61

00000060 <__do_copy_data>:
  60:	10 e0       	ldi	r17, 0x00	; 0
  62:	a0 e6       	ldi	r26, 0x60	; 96
  64:	b0 e0       	ldi	r27, 0x00	; 0
  66:	e4 e0       	ldi	r30, 0x04	; 4
  68:	f1 e0       	ldi	r31, 0x01	; 1
  6a:	02 c0       	rjmp	.+4      	; 0x70 <__do_copy_data+0x10>
  6c:	05 90       	lpm	r0, Z+
  6e:	0d 92       	st	X+, r0
  70:	a8 36       	cpi	r26, 0x68	; 104
  72:	b1 07       	cpc	r27, r17
  74:	d9 f7       	brne	.-10     	; 0x6c <__do_copy_data+0xc>

00000076 <__do_clear_bss>:
  76:	20 e0       	ldi	r18, 0x00	; 0
  78:	a8 e6       	ldi	r26, 0x68	; 104
  7a:	b0 e0       	ldi	r27, 0x00	; 0
  7c:	01 c0       	rjmp	.+2      	; 0x80 <.do_clear_bss_start>

0000007e <.do_clear_bss_loop>:
  7e:	1d 92       	st	X+, r1

00000080 <.do_clear_bss_start>:
  80:	aa 36       	cpi	r26, 0x6A	; 106
  82:	b2 07       	cpc	r27, r18
  84:	e1 f7       	brne	.-8      	; 0x7e <.do_clear_bss_loop>
  86:	0e 94 49 00 	call	0x92	; 0x92 <main>
  8a:	0c 94 80 00 	jmp	0x100	; 0x100 <_exit>

0000008e <__bad_interrupt>:
  8e:	0c 94 00 00 	jmp	0	; 0x0 <__vectors>

00000092 <main>:
#define baud (clock/128)

int main(void)
{
	
	USART_Init(baud);
  92:	80 e0       	ldi	r24, 0x00	; 0
  94:	92 ec       	ldi	r25, 0xC2	; 194
  96:	0e 94 66 00 	call	0xcc	; 0xcc <_Z10USART_Initj>
    init32Kwrite();
  9a:	0e 94 5b 00 	call	0xb6	; 0xb6 <_Z12init32Kwritev>
	monitorInit();
  9e:	0e 94 52 00 	call	0xa4	; 0xa4 <_Z11monitorInitv>
  a2:	ff cf       	rjmp	.-2      	; 0xa2 <main+0x10>

000000a4 <_Z11monitorInitv>:
	
}

void monitorInit(){
	
	USART_PrintStr("Pingas");
  a4:	80 e6       	ldi	r24, 0x60	; 96
  a6:	90 e0       	ldi	r25, 0x00	; 0
  a8:	0e 94 71 00 	call	0xe2	; 0xe2 <_Z14USART_PrintStrPc>
	buff_size = 0;
  ac:	10 92 69 00 	sts	0x0069, r1	; 0x800069 <__data_end+0x1>
  b0:	10 92 68 00 	sts	0x0068, r1	; 0x800068 <__data_end>
  b4:	08 95       	ret

000000b6 <_Z12init32Kwritev>:
}

void init32Kwrite(){
	
	//Set GPIO Direction
	DDRA |= (0xff);	//All Pins Out
  b6:	8a b3       	in	r24, 0x1a	; 26
  b8:	8f ef       	ldi	r24, 0xFF	; 255
  ba:	8a bb       	out	0x1a, r24	; 26
	DDRB |= (0xff);	//All Pins Out
  bc:	97 b3       	in	r25, 0x17	; 23
  be:	87 bb       	out	0x17, r24	; 23
	DDRC |= (0xff);	//All Pins Out
  c0:	94 b3       	in	r25, 0x14	; 20
  c2:	84 bb       	out	0x14, r24	; 20
	DDRD |= (1 << DDRD7)|(1 << DDRD6)|(1 << DDRD5);	//5,6,7 are Outputs
  c4:	81 b3       	in	r24, 0x11	; 17
  c6:	80 6e       	ori	r24, 0xE0	; 224
  c8:	81 bb       	out	0x11, r24	; 17
  ca:	08 95       	ret

000000cc <_Z10USART_Initj>:
	/* Wait for data to be received */
	while ( !(UCSRA & (1<<RXC)) )
	;
	/* Get and return received data from buffer */
	return UDR;
}
  cc:	90 bd       	out	0x20, r25	; 32
  ce:	89 b9       	out	0x09, r24	; 9
  d0:	88 e1       	ldi	r24, 0x18	; 24
  d2:	8a b9       	out	0x0a, r24	; 10
  d4:	8e e8       	ldi	r24, 0x8E	; 142
  d6:	80 bd       	out	0x20, r24	; 32
  d8:	08 95       	ret

000000da <_Z14USART_Transmith>:
  da:	5d 9b       	sbis	0x0b, 5	; 11
  dc:	fe cf       	rjmp	.-4      	; 0xda <_Z14USART_Transmith>
  de:	8c b9       	out	0x0c, r24	; 12
  e0:	08 95       	ret

000000e2 <_Z14USART_PrintStrPc>:

void USART_PrintStr(char s[]){
  e2:	cf 93       	push	r28
  e4:	df 93       	push	r29
  e6:	ec 01       	movw	r28, r24
	
	for(int i = 0; s[i] != '\0'; i++){
  e8:	88 81       	ld	r24, Y
  ea:	88 23       	and	r24, r24
  ec:	31 f0       	breq	.+12     	; 0xfa <_Z14USART_PrintStrPc+0x18>
  ee:	21 96       	adiw	r28, 0x01	; 1
		USART_Transmit(s[i]);
  f0:	0e 94 6d 00 	call	0xda	; 0xda <_Z14USART_Transmith>
	return UDR;
}

void USART_PrintStr(char s[]){
	
	for(int i = 0; s[i] != '\0'; i++){
  f4:	89 91       	ld	r24, Y+
  f6:	81 11       	cpse	r24, r1
  f8:	fb cf       	rjmp	.-10     	; 0xf0 <_Z14USART_PrintStrPc+0xe>
		USART_Transmit(s[i]);
	}
  fa:	df 91       	pop	r29
  fc:	cf 91       	pop	r28
  fe:	08 95       	ret

00000100 <_exit>:
 100:	f8 94       	cli

00000102 <__stop_program>:
 102:	ff cf       	rjmp	.-2      	; 0x102 <__stop_program>
